(lp1
(dp2
S'catfilepath'
p3
S'/afs/ir.stanford.edu/class/physics100/workdir/DAN_Project/data/eclipse_data/reduction_output/eclipse_151_CleanScience.cat'
p4
sS'okforalignment'
p5
I00
sS'nbralistars'
p6
I0
sS'ell'
p7
F-1
sS'identangle'
p8
F0
sS'i'
I0
sS'basename'
p9
S'eclipse_151_CleanScience'
p10
sS'seeingpixels'
p11
F-1
sS'rawimgname'
p12
S'eclipse_151_CleanScience.fits'
p13
sS'foundshift'
p14
F0
sS'rawimgpath'
p15
S'/afs/.ir/users/n/i/nishith/physics100/workdir/DAN_Project/data/eclipse_data/process_output/eclipse_151_CleanScience.fits'
p16
sS'catfilename'
p17
S'eclipse_151_CleanScience.cat'
p18
sS'alicomment'
p19
S'Cannot be aligned.'
p20
sS'nbrsources'
p21
I0
sS'scalingfactor'
p22
F1
sa(dp23
g3
S'/afs/ir.stanford.edu/class/physics100/workdir/DAN_Project/data/eclipse_data/reduction_output/eclipse_152_CleanScience.cat'
p24
sg5
I00
sg6
I0
sg7
F-1
sg8
F0
sS'i'
I1
sg9
S'eclipse_152_CleanScience'
p25
sg11
F-1
sg12
S'eclipse_152_CleanScience.fits'
p26
sg14
F0
sg15
S'/afs/.ir/users/n/i/nishith/physics100/workdir/DAN_Project/data/eclipse_data/process_output/eclipse_152_CleanScience.fits'
p27
sg17
S'eclipse_152_CleanScience.cat'
p28
sg19
g20
sg21
I0
sg22
F1
sa(dp29
g3
S'/afs/ir.stanford.edu/class/physics100/workdir/DAN_Project/data/eclipse_data/reduction_output/eclipse_153_CleanScience.cat'
p30
sg5
I00
sg6
I0
sg7
F-1
sg8
F0
sS'i'
I2
sg9
S'eclipse_153_CleanScience'
p31
sg11
F-1
sg12
S'eclipse_153_CleanScience.fits'
p32
sg14
F0
sg15
S'/afs/.ir/users/n/i/nishith/physics100/workdir/DAN_Project/data/eclipse_data/process_output/eclipse_153_CleanScience.fits'
p33
sg17
S'eclipse_153_CleanScience.cat'
p34
sg19
g20
sg21
I0
sg22
F1
sa(dp35
g3
S'/afs/ir.stanford.edu/class/physics100/workdir/DAN_Project/data/eclipse_data/reduction_output/eclipse_154_CleanScience.cat'
p36
sg5
I00
sg6
I0
sg7
F-1
sg8
F0
sS'i'
I3
sg9
S'eclipse_154_CleanScience'
p37
sg11
F-1
sg12
S'eclipse_154_CleanScience.fits'
p38
sg14
F0
sg15
S'/afs/.ir/users/n/i/nishith/physics100/workdir/DAN_Project/data/eclipse_data/process_output/eclipse_154_CleanScience.fits'
p39
sg17
S'eclipse_154_CleanScience.cat'
p40
sg19
g20
sg21
I0
sg22
F1
sa(dp41
g3
S'/afs/ir.stanford.edu/class/physics100/workdir/DAN_Project/data/eclipse_data/reduction_output/eclipse_155_CleanScience.cat'
p42
sg5
I00
sg6
I0
sg7
F-1
sg8
F0
sS'i'
I4
sg9
S'eclipse_155_CleanScience'
p43
sg11
F-1
sg12
S'eclipse_155_CleanScience.fits'
p44
sg14
F0
sg15
S'/afs/.ir/users/n/i/nishith/physics100/workdir/DAN_Project/data/eclipse_data/process_output/eclipse_155_CleanScience.fits'
p45
sg17
S'eclipse_155_CleanScience.cat'
p46
sg19
g20
sg21
I0
sg22
F1
sa.