(lp1
(dp2
S'basename'
p3
S'normal_106_CleanScience'
p4
sS'geomaprms'
p5
F0.067014542539548083
sS'geomapinfile'
p6
S'normal_106_CleanScience.geomapin'
p7
sS'scalingfactor'
p8
F1
sS'catfilepath'
p9
S'/afs/ir.stanford.edu/class/physics100/workdir/DAN_Project/data/normal_data/reduction_output/normal_106_CleanScience.cat'
p10
sS'ell'
p11
cnumpy.core.multiarray
scalar
p12
(cnumpy
dtype
p13
(S'f8'
I0
I1
tRp14
(I3
S'<'
NNNI-1
I-1
I0
tbS'\xdb\xf9~j\xbct\xc3?'
tRp15
sS'identangle'
p16
F359.96578306482877
sS'rawimgname'
p17
S'normal_106_CleanScience.fits'
p18
sS'geomapinpath'
p19
S'/afs/ir.stanford.edu/class/physics100/workdir/DAN_Project/data/normal_data/reduction_output/normal_106_CleanScience.geomapin'
p20
sS'geomapscale'
p21
F1.000216
sS'alicomment'
p22
S'No match : 33 32 '
p23
sS'okforalignment'
p24
I01
sS'geomapangle'
p25
F359.99468999999999
sS'seeingpixels'
p26
g12
(g14
S'333333\x01@'
tRp27
sS'foundshift'
p28
(F0.96308890285763482
F0.11311862486465429
tp29
sS'aliimgname'
p30
S'normal_106_CleanScience_ali.fits'
p31
sS'aliimgpath'
p32
S'/afs/ir.stanford.edu/class/physics100/workdir/DAN_Project/data/normal_data/reduction_output/normal_106_CleanScience_ali.fits'
p33
sS'maskname'
p34
S'normal_106_CleanScience_mask.fits'
p35
sS'geodatabasepath'
p36
S'/afs/ir.stanford.edu/class/physics100/workdir/DAN_Project/data/normal_data/reduction_output/normal_106_CleanScience.geodatabase'
p37
sS'nbralistars'
p38
I38
sS'geosumpath'
p39
S'/afs/ir.stanford.edu/class/physics100/workdir/DAN_Project/data/normal_data/reduction_output/normal_106_CleanScience.geosum'
p40
sS'i'
I0
sS'nbrsources'
p41
I38
sS'rawimgpath'
p42
S'/afs/.ir/users/n/i/nishith/physics100/workdir/DAN_Project/data/normal_data/process_output/normal_106_CleanScience.fits'
p43
sS'catfilename'
p44
S'normal_106_CleanScience.cat'
p45
sS'maskpath'
p46
S'/afs/ir.stanford.edu/class/physics100/workdir/DAN_Project/data/normal_data/reduction_output/normal_106_CleanScience_mask.fits'
p47
sa(dp48
g3
S'normal_107_CleanScience'
p49
sg5
F0
sg6
S'normal_107_CleanScience.geomapin'
p50
sg8
F1
sg9
S'/afs/ir.stanford.edu/class/physics100/workdir/DAN_Project/data/normal_data/reduction_output/normal_107_CleanScience.cat'
p51
sg11
g12
(g14
S'\x81\x95C\x8bl\xe7\xbb?'
tRp52
sg16
F0
sg17
S'normal_107_CleanScience.fits'
p53
sg19
S'/afs/ir.stanford.edu/class/physics100/workdir/DAN_Project/data/normal_data/reduction_output/normal_107_CleanScience.geomapin'
p54
sg21
F1
sg22
S''
sg24
I01
sg25
F0
sg26
g12
(g14
S'433333\xff?'
tRp55
sg28
(F0
F0
tp56
sg30
S'normal_107_CleanScience_ali.fits'
p57
sg32
S'/afs/ir.stanford.edu/class/physics100/workdir/DAN_Project/data/normal_data/reduction_output/normal_107_CleanScience_ali.fits'
p58
sg34
S'normal_107_CleanScience_mask.fits'
p59
sg36
S'/afs/ir.stanford.edu/class/physics100/workdir/DAN_Project/data/normal_data/reduction_output/normal_107_CleanScience.geodatabase'
p60
sg38
I40
sg39
S'/afs/ir.stanford.edu/class/physics100/workdir/DAN_Project/data/normal_data/reduction_output/normal_107_CleanScience.geosum'
p61
sS'i'
I1
sg41
I40
sg42
S'/afs/.ir/users/n/i/nishith/physics100/workdir/DAN_Project/data/normal_data/process_output/normal_107_CleanScience.fits'
p62
sg44
S'normal_107_CleanScience.cat'
p63
sg46
S'/afs/ir.stanford.edu/class/physics100/workdir/DAN_Project/data/normal_data/reduction_output/normal_107_CleanScience_mask.fits'
p64
sa(dp65
g3
S'normal_108_CleanScience'
p66
sg5
F0.092025325667397129
sg6
S'normal_108_CleanScience.geomapin'
p67
sg8
F1
sg9
S'/afs/ir.stanford.edu/class/physics100/workdir/DAN_Project/data/normal_data/reduction_output/normal_108_CleanScience.cat'
p68
sg11
g12
(g14
S'\xb8\x1e\x85\xebQ\xb8\xbe?'
tRp69
sg16
F359.99360614616523
sg17
S'normal_108_CleanScience.fits'
p70
sg19
S'/afs/ir.stanford.edu/class/physics100/workdir/DAN_Project/data/normal_data/reduction_output/normal_108_CleanScience.geomapin'
p71
sg21
F0.99984850000000003
sg22
S'No match : 33 14 29 32 '
p72
sg24
I01
sg25
F359.99963000000002
sg26
g12
(g14
S'333333\x01@'
tRp73
sg28
(F-0.74987667845704209
F-0.054092134615302712
tp74
sg30
S'normal_108_CleanScience_ali.fits'
p75
sg32
S'/afs/ir.stanford.edu/class/physics100/workdir/DAN_Project/data/normal_data/reduction_output/normal_108_CleanScience_ali.fits'
p76
sg34
S'normal_108_CleanScience_mask.fits'
p77
sg36
S'/afs/ir.stanford.edu/class/physics100/workdir/DAN_Project/data/normal_data/reduction_output/normal_108_CleanScience.geodatabase'
p78
sg38
I36
sg39
S'/afs/ir.stanford.edu/class/physics100/workdir/DAN_Project/data/normal_data/reduction_output/normal_108_CleanScience.geosum'
p79
sS'i'
I2
sg41
I39
sg42
S'/afs/.ir/users/n/i/nishith/physics100/workdir/DAN_Project/data/normal_data/process_output/normal_108_CleanScience.fits'
p80
sg44
S'normal_108_CleanScience.cat'
p81
sg46
S'/afs/ir.stanford.edu/class/physics100/workdir/DAN_Project/data/normal_data/reduction_output/normal_108_CleanScience_mask.fits'
p82
sa(dp83
g3
S'normal_109_CleanScience'
p84
sg5
F0.097702477746880595
sg6
S'normal_109_CleanScience.geomapin'
p85
sg8
F1
sg9
S'/afs/ir.stanford.edu/class/physics100/workdir/DAN_Project/data/normal_data/reduction_output/normal_109_CleanScience.cat'
p86
sg11
g12
(g14
S'\xd1"\xdb\xf9~j\xbc?'
tRp87
sg16
F359.99329305629146
sg17
S'normal_109_CleanScience.fits'
p88
sg19
S'/afs/ir.stanford.edu/class/physics100/workdir/DAN_Project/data/normal_data/reduction_output/normal_109_CleanScience.geomapin'
p89
sg21
F0.99994340000000004
sg22
S'No match : 33 30 20 32 '
p90
sg24
I01
sg25
F359.99518
sg26
g12
(g14
S'gfffff\x00@'
tRp91
sg28
(F-0.36173349912297681
F-0.73137930826010233
tp92
sg30
S'normal_109_CleanScience_ali.fits'
p93
sg32
S'/afs/ir.stanford.edu/class/physics100/workdir/DAN_Project/data/normal_data/reduction_output/normal_109_CleanScience_ali.fits'
p94
sg34
S'normal_109_CleanScience_mask.fits'
p95
sg36
S'/afs/ir.stanford.edu/class/physics100/workdir/DAN_Project/data/normal_data/reduction_output/normal_109_CleanScience.geodatabase'
p96
sg38
I36
sg39
S'/afs/ir.stanford.edu/class/physics100/workdir/DAN_Project/data/normal_data/reduction_output/normal_109_CleanScience.geosum'
p97
sS'i'
I3
sg41
I38
sg42
S'/afs/.ir/users/n/i/nishith/physics100/workdir/DAN_Project/data/normal_data/process_output/normal_109_CleanScience.fits'
p98
sg44
S'normal_109_CleanScience.cat'
p99
sg46
S'/afs/ir.stanford.edu/class/physics100/workdir/DAN_Project/data/normal_data/reduction_output/normal_109_CleanScience_mask.fits'
p100
sa(dp101
g3
S'normal_110_CleanScience'
p102
sg5
F0.087181670002616951
sg6
S'normal_110_CleanScience.geomapin'
p103
sg8
F1
sg9
S'/afs/ir.stanford.edu/class/physics100/workdir/DAN_Project/data/normal_data/reduction_output/normal_110_CleanScience.cat'
p104
sg11
g12
(g14
S'j\xbct\x93\x18\x04\xb6?'
tRp105
sg16
F359.98580866449834
sg17
S'normal_110_CleanScience.fits'
p106
sg19
S'/afs/ir.stanford.edu/class/physics100/workdir/DAN_Project/data/normal_data/reduction_output/normal_110_CleanScience.geomapin'
p107
sg21
F0.99995769999999995
sg22
S'No match : 33 29 20 32 '
p108
sg24
I01
sg25
F359.99529999999999
sg26
g12
(g14
S'\x9a\x99\x99\x99\x99\x99\xfd?'
tRp109
sg28
(F1.4026078631228529
F-0.65183705502258249
tp110
sg30
S'normal_110_CleanScience_ali.fits'
p111
sg32
S'/afs/ir.stanford.edu/class/physics100/workdir/DAN_Project/data/normal_data/reduction_output/normal_110_CleanScience_ali.fits'
p112
sg34
S'normal_110_CleanScience_mask.fits'
p113
sg36
S'/afs/ir.stanford.edu/class/physics100/workdir/DAN_Project/data/normal_data/reduction_output/normal_110_CleanScience.geodatabase'
p114
sg38
I36
sg39
S'/afs/ir.stanford.edu/class/physics100/workdir/DAN_Project/data/normal_data/reduction_output/normal_110_CleanScience.geosum'
p115
sS'i'
I4
sg41
I37
sg42
S'/afs/.ir/users/n/i/nishith/physics100/workdir/DAN_Project/data/normal_data/process_output/normal_110_CleanScience.fits'
p116
sg44
S'normal_110_CleanScience.cat'
p117
sg46
S'/afs/ir.stanford.edu/class/physics100/workdir/DAN_Project/data/normal_data/reduction_output/normal_110_CleanScience_mask.fits'
p118
sa.