(lp1
(imodules.star
star
p2
(dp3
S'name'
p4
S'41'
p5
sS'ell'
p6
F0.012
sS'flux'
p7
F712057
sS'y'
F142.19999999999999
sS'x'
F321.03100000000001
sS'fwhm'
p8
F3.1400000000000001
sba(imodules.star
star
p9
(dp10
g4
S'27'
p11
sg6
F0.017999999999999999
sg7
F451139
sS'y'
F294.113
sS'x'
F252.22900000000001
sg8
F2.46
sba(imodules.star
star
p12
(dp13
g4
S'19'
p14
sg6
F0.035000000000000003
sg7
F320717
sS'y'
F381.24099999999999
sS'x'
F101.45699999999999
sg8
F2.0299999999999998
sba(imodules.star
star
p15
(dp16
g4
S'36'
p17
sg6
F0.098000000000000004
sg7
F303599
sS'y'
F190.959
sS'x'
F452.97199999999998
sg8
F2.04
sba(imodules.star
star
p18
(dp19
g4
S'43'
p20
sg6
F0.40799999999999997
sg7
F114401
sS'y'
F127.327
sS'x'
F89.295000000000002
sg8
F2.73
sba(imodules.star
star
p21
(dp22
g4
S'33'
p23
sg6
F0.085999999999999993
sg7
F91474.800000000003
sS'y'
F232.25700000000001
sS'x'
F69.109999999999999
sg8
F1.04
sba(imodules.star
star
p24
(dp25
g4
S'47'
p26
sg6
F0.071999999999999995
sg7
F74339
sS'y'
F36.106999999999999
sS'x'
F343.755
sg8
F2.0699999999999998
sba(imodules.star
star
p27
(dp28
g4
S'2'
sg6
F0.104
sg7
F57321.199999999997
sS'y'
F492.70600000000002
sS'x'
F396.30399999999997
sg8
F2.0499999999999998
sba(imodules.star
star
p29
(dp30
g4
S'34'
p31
sg6
F0.105
sg7
F29742.200000000001
sS'y'
F221.63
sS'x'
F414.88
sg8
F1.98
sba(imodules.star
star
p32
(dp33
g4
S'45'
p34
sg6
F0.071999999999999995
sg7
F21348.799999999999
sS'y'
F43.845999999999997
sS'x'
F382.44900000000001
sg8
F2.0600000000000001
sba(imodules.star
star
p35
(dp36
g4
S'25'
p37
sg6
F0.083000000000000004
sg7
F21150.400000000001
sS'y'
F338.322
sS'x'
F212.268
sg8
F1.98
sba(imodules.star
star
p38
(dp39
g4
S'15'
p40
sg6
F0.081000000000000003
sg7
F18763.599999999999
sS'y'
F405.12299999999999
sS'x'
F369.39299999999997
sg8
F1.9399999999999999
sba(imodules.star
star
p41
(dp42
g4
S'48'
p43
sg6
F0.14199999999999999
sg7
F12781.700000000001
sS'y'
F35.095999999999997
sS'x'
F455.024
sg8
F2
sba(imodules.star
star
p44
(dp45
g4
S'46'
p46
sg6
F0.127
sg7
F10665.200000000001
sS'y'
F39.058999999999997
sS'x'
F421.34399999999999
sg8
F2.0299999999999998
sba(imodules.star
star
p47
(dp48
g4
S'11'
p49
sg6
F0.109
sg7
F9033.1499999999996
sS'y'
F450.78500000000003
sS'x'
F301.06700000000001
sg8
F2.0499999999999998
sba(imodules.star
star
p50
(dp51
g4
S'18'
p52
sg6
F0.058000000000000003
sg7
F8289.9200000000001
sS'y'
F386.30799999999999
sS'x'
F424.08499999999998
sg8
F1.8500000000000001
sba(imodules.star
star
p53
(dp54
g4
S'28'
p55
sg6
F0.063
sg7
F7584.0200000000004
sS'y'
F298.79700000000003
sS'x'
F89.701999999999998
sg8
F1.99
sba(imodules.star
star
p56
(dp57
g4
S'16'
p58
sg6
F0.14000000000000001
sg7
F7237.8199999999997
sS'y'
F405.74900000000002
sS'x'
F28.885999999999999
sg8
F2.23
sba(imodules.star
star
p59
(dp60
g4
S'21'
p61
sg6
F0.074999999999999997
sg7
F6869.8999999999996
sS'y'
F370.32499999999999
sS'x'
F166.37100000000001
sg8
F1.99
sba(imodules.star
star
p62
(dp63
g4
S'31'
p64
sg6
F0.092999999999999999
sg7
F6806.6700000000001
sS'y'
F255.661
sS'x'
F371.58300000000003
sg8
F2.0600000000000001
sba(imodules.star
star
p65
(dp66
g4
S'23'
p67
sg6
F0.11600000000000001
sg7
F6467.6300000000001
sS'y'
F342.03699999999998
sS'x'
F350.69400000000002
sg8
F1.8500000000000001
sba(imodules.star
star
p68
(dp69
g4
S'22'
p70
sg6
F0.189
sg7
F5797.3400000000001
sS'y'
F366.46499999999997
sS'x'
F70.917000000000002
sg8
F1.99
sba(imodules.star
star
p71
(dp72
g4
S'1'
sg6
F0.14199999999999999
sg7
F5605.6400000000003
sS'y'
F14.132999999999999
sS'x'
F31.201000000000001
sg8
F2.1200000000000001
sba(imodules.star
star
p73
(dp74
g4
S'12'
p75
sg6
F0.46800000000000003
sg7
F5026.0200000000004
sS'y'
F431.09500000000003
sS'x'
F253.542
sg8
F5.25
sba(imodules.star
star
p76
(dp77
g4
S'13'
p78
sg6
F0.158
sg7
F4709.5600000000004
sS'y'
F432.38400000000001
sS'x'
F163.09700000000001
sg8
F2.0499999999999998
sba(imodules.star
star
p79
(dp80
g4
S'17'
p81
sg6
F0.068000000000000005
sg7
F4581.96
sS'y'
F404.274
sS'x'
F473.55200000000002
sg8
F1.8100000000000001
sba(imodules.star
star
p82
(dp83
g4
S'44'
p84
sg6
F0.11
sg7
F3969.4299999999998
sS'y'
F98.835999999999999
sS'x'
F320.96600000000001
sg8
F2.0299999999999998
sba(imodules.star
star
p85
(dp86
g4
S'24'
p87
sg6
F0.24399999999999999
sg7
F3823.2600000000002
sS'y'
F339.96300000000002
sS'x'
F116.078
sg8
F2.02
sba(imodules.star
star
p88
(dp89
g4
S'35'
p90
sg6
F0.188
sg7
F3672.0100000000002
sS'y'
F203.453
sS'x'
F438.55099999999999
sg8
F2.0699999999999998
sba(imodules.star
star
p91
(dp92
g4
S'39'
p93
sg6
F0.019
sg7
F3157.1799999999998
sS'y'
F171.33600000000001
sS'x'
F358.173
sg8
F1.9399999999999999
sba(imodules.star
star
p94
(dp95
g4
S'38'
p96
sg6
F0.085999999999999993
sg7
F3056.2399999999998
sS'y'
F178.767
sS'x'
F488.52100000000002
sg8
F2.2799999999999998
sba(imodules.star
star
p97
(dp98
g4
S'14'
p99
sg6
F0.33900000000000002
sg7
F2948.0700000000002
sS'y'
F408.82900000000001
sS'x'
F196.05099999999999
sg8
F3.04
sba(imodules.star
star
p100
(dp101
g4
S'40'
p102
sg6
F0.17000000000000001
sg7
F2776.79
sS'y'
F159.66
sS'x'
F68.947999999999993
sg8
F2.0600000000000001
sba(imodules.star
star
p103
(dp104
g4
S'26'
p105
sg6
F0.215
sg7
F2476.6500000000001
sS'y'
F316.96199999999999
sS'x'
F145.523
sg8
F2.04
sba(imodules.star
star
p106
(dp107
g4
S'42'
p108
sg6
F0.16500000000000001
sg7
F2401.4899999999998
sS'y'
F144.922
sS'x'
F131.773
sg8
F2.21
sba(imodules.star
star
p109
(dp110
g4
S'29'
p111
sg6
F0.22600000000000001
sg7
F2367.3600000000001
sS'y'
F293.96600000000001
sS'x'
F103.34699999999999
sg8
F1.99
sba(imodules.star
star
p112
(dp113
g4
S'30'
p114
sg6
F0.037999999999999999
sg7
F2230.29
sS'y'
F267.50400000000002
sS'x'
F268.62
sg8
F2.23
sba(imodules.star
star
p115
(dp116
g4
S'37'
p117
sg6
F0.14999999999999999
sg7
F2070.54
sS'y'
F188.928
sS'x'
F331.80599999999998
sg8
F1.96
sba(imodules.star
star
p118
(dp119
g4
S'20'
p120
sg6
F0.123
sg7
F1744.8099999999999
sS'y'
F376.23599999999999
sS'x'
F422.95299999999997
sg8
F2
sba(imodules.star
star
p121
(dp122
g4
S'32'
p123
sg6
F0.13900000000000001
sg7
F1740.6500000000001
sS'y'
F254.37299999999999
sS'x'
F385.50900000000001
sg8
F2.3399999999999999
sba.